target datalayout = "e-m:e-p270:32:32-p271:32:32-p272:64:64-i64:64-i128:128-f80:128-n8:16:32:64-S128"
target triple = "x86_64-pc-linux-gnu"

%"class.cv::Point_" = type { float, float }
%"struct.std::_Vector_base.17" = type { %"struct.std::_Vector_base<std::vector<cv::Point_<float>>, std::allocator<std::vector<cv::Point_<float>>>>::_Vector_impl" }
%"struct.std::_Vector_base<std::vector<cv::Point_<float>>, std::allocator<std::vector<cv::Point_<float>>>>::_Vector_impl" = type { %"struct.std::_Vector_base<std::vector<cv::Point_<float>>, std::allocator<std::vector<cv::Point_<float>>>>::_Vector_impl_data" }
%"struct.std::_Vector_base<std::vector<cv::Point_<float>>, std::allocator<std::vector<cv::Point_<float>>>>::_Vector_impl_data" = type { ptr, ptr, ptr }
%"class.std::vector.31" = type { %"struct.std::_Vector_base.32" }
%"struct.std::_Vector_base.32" = type { %"struct.std::_Vector_base<cv::Point_<float>, std::allocator<cv::Point_<float>>>::_Vector_impl" }
%"struct.std::_Vector_base<cv::Point_<float>, std::allocator<cv::Point_<float>>>::_Vector_impl" = type { %"struct.std::_Vector_base<cv::Point_<float>, std::allocator<cv::Point_<float>>>::_Vector_impl_data" }
%"struct.std::_Vector_base<cv::Point_<float>, std::allocator<cv::Point_<float>>>::_Vector_impl_data" = type { ptr, ptr, ptr }

; Function Attrs: mustprogress nounwind uwtable
define linkonce_odr hidden noundef nonnull align 4 dereferenceable(8) ptr @_ZNSt6vectorIN2cv6Point_IfEESaIS2_EEixEm(ptr noundef nonnull align 8 dereferenceable(24) %0, i64 noundef %1) #5 comdat align 2 {
  %3 = alloca ptr, align 8
  %4 = alloca i64, align 8
  store ptr %0, ptr %3, align 8
  store i64 %1, ptr %4, align 8
  %5 = load ptr, ptr %3, align 8
  %6 = getelementptr inbounds %"struct.std::_Vector_base.32", ptr %5, i32 0, i32 0
  %7 = getelementptr inbounds %"struct.std::_Vector_base<cv::Point_<float>, std::allocator<cv::Point_<float>>>::_Vector_impl_data", ptr %6, i32 0, i32 0
  %8 = load ptr, ptr %7, align 8
  %9 = load i64, ptr %4, align 8
  %10 = getelementptr inbounds %"class.cv::Point_", ptr %8, i64 %9
  ret ptr %10
}

; Function Attrs: mustprogress nounwind uwtable
define linkonce_odr hidden noundef i64 @_ZNKSt6vectorIS_IN2cv6Point_IfEESaIS2_EESaIS4_EE4sizeEv(ptr noundef nonnull align 8 dereferenceable(24) %0) #5 comdat align 2 {
  %2 = alloca ptr, align 8
  store ptr %0, ptr %2, align 8
  %3 = load ptr, ptr %2, align 8
  %4 = getelementptr inbounds %"struct.std::_Vector_base.17", ptr %3, i32 0, i32 0
  %5 = getelementptr inbounds %"struct.std::_Vector_base<std::vector<cv::Point_<float>>, std::allocator<std::vector<cv::Point_<float>>>>::_Vector_impl_data", ptr %4, i32 0, i32 1
  %6 = load ptr, ptr %5, align 8
  %7 = getelementptr inbounds %"struct.std::_Vector_base.17", ptr %3, i32 0, i32 0
  %8 = getelementptr inbounds %"struct.std::_Vector_base<std::vector<cv::Point_<float>>, std::allocator<std::vector<cv::Point_<float>>>>::_Vector_impl_data", ptr %7, i32 0, i32 0
  %9 = load ptr, ptr %8, align 8
  %10 = ptrtoint ptr %6 to i64
  %11 = ptrtoint ptr %9 to i64
  %12 = sub i64 %10, %11
  %13 = sdiv exact i64 %12, 24
  ret i64 %13
}

; Function Attrs: mustprogress nounwind uwtable
define linkonce_odr hidden void @_ZN2cv6Point_IfEC2Ev(ptr noundef nonnull align 4 dereferenceable(8) %0) unnamed_addr #5 comdat align 2 {
  %2 = alloca ptr, align 8
  store ptr %0, ptr %2, align 8
  %3 = load ptr, ptr %2, align 8
  %4 = getelementptr inbounds %"class.cv::Point_", ptr %3, i32 0, i32 0
  store float 0.000000e+00, ptr %4, align 4
  %5 = getelementptr inbounds %"class.cv::Point_", ptr %3, i32 0, i32 1
  store float 0.000000e+00, ptr %5, align 4
  ret void
}

; Function Attrs: mustprogress nounwind uwtable
define linkonce_odr hidden noundef i64 @_ZNKSt6vectorIN2cv6Point_IfEESaIS2_EE4sizeEv(ptr noundef nonnull align 8 dereferenceable(24) %0) #5 comdat align 2 {
  %2 = alloca ptr, align 8
  store ptr %0, ptr %2, align 8
  %3 = load ptr, ptr %2, align 8
  %4 = getelementptr inbounds %"struct.std::_Vector_base.32", ptr %3, i32 0, i32 0
  %5 = getelementptr inbounds %"struct.std::_Vector_base<cv::Point_<float>, std::allocator<cv::Point_<float>>>::_Vector_impl_data", ptr %4, i32 0, i32 1
  %6 = load ptr, ptr %5, align 8
  %7 = getelementptr inbounds %"struct.std::_Vector_base.32", ptr %3, i32 0, i32 0
  %8 = getelementptr inbounds %"struct.std::_Vector_base<cv::Point_<float>, std::allocator<cv::Point_<float>>>::_Vector_impl_data", ptr %7, i32 0, i32 0
  %9 = load ptr, ptr %8, align 8
  %10 = ptrtoint ptr %6 to i64
  %11 = ptrtoint ptr %9 to i64
  %12 = sub i64 %10, %11
  %13 = sdiv exact i64 %12, 8
  ret i64 %13
}

; Function Attrs: mustprogress nounwind uwtable
define linkonce_odr hidden noundef nonnull align 8 dereferenceable(24) ptr @_ZNSt6vectorIS_IN2cv6Point_IfEESaIS2_EESaIS4_EEixEm(ptr noundef nonnull align 8 dereferenceable(24) %0, i64 noundef %1) #5 comdat align 2 {
  %3 = alloca ptr, align 8
  %4 = alloca i64, align 8
  store ptr %0, ptr %3, align 8
  store i64 %1, ptr %4, align 8
  %5 = load ptr, ptr %3, align 8
  %6 = getelementptr inbounds %"struct.std::_Vector_base.17", ptr %5, i32 0, i32 0
  %7 = getelementptr inbounds %"struct.std::_Vector_base<std::vector<cv::Point_<float>>, std::allocator<std::vector<cv::Point_<float>>>>::_Vector_impl_data", ptr %6, i32 0, i32 0
  %8 = load ptr, ptr %7, align 8
  %9 = load i64, ptr %4, align 8
  %10 = getelementptr inbounds %"class.std::vector.31", ptr %8, i64 %9
  ret ptr %10
}

; Function Attrs: mustprogress uwtable
define hidden void @_ZN2cv4face15FacemarkAAMImpl13calcMeanShapeESt6vectorIS2_INS_6Point_IfEESaIS4_EESaIS6_EERS6_(ptr noundef nonnull align 8 dereferenceable(449) %0, ptr noundef %1, ptr noundef nonnull align 8 dereferenceable(24) %2) #4 align 2 {
  %4 = alloca ptr, align 8
  %5 = alloca ptr, align 8
  %6 = alloca ptr, align 8
  %7 = alloca %"class.cv::Point_", align 4
  %8 = alloca i32, align 4
  %9 = alloca i32, align 4
  store ptr %0, ptr %4, align 8
  store ptr %1, ptr %5, align 8
  store ptr %2, ptr %6, align 8
  %10 = load ptr, ptr %6, align 8
  %11 = call noundef nonnull align 8 dereferenceable(24) ptr @_ZNSt6vectorIS_IN2cv6Point_IfEESaIS2_EESaIS4_EEixEm(ptr noundef nonnull align 8 dereferenceable(24) %1, i64 noundef 0) #3
  %12 = call noundef i64 @_ZNKSt6vectorIN2cv6Point_IfEESaIS2_EE4sizeEv(ptr noundef nonnull align 8 dereferenceable(24) %11) #3
  call void @_ZNSt6vectorIN2cv6Point_IfEESaIS2_EE6resizeEm(ptr noundef nonnull align 8 dereferenceable(24) %10, i64 noundef %12)
  call void @_ZN2cv6Point_IfEC2Ev(ptr noundef nonnull align 4 dereferenceable(8) %7)
  store i32 0, ptr %8, align 4
  br label %13

13:                                               ; preds = %68, %3
  %14 = load i32, ptr %8, align 4
  %15 = zext i32 %14 to i64
  %16 = call noundef nonnull align 8 dereferenceable(24) ptr @_ZNSt6vectorIS_IN2cv6Point_IfEESaIS2_EESaIS4_EEixEm(ptr noundef nonnull align 8 dereferenceable(24) %1, i64 noundef 0) #3
  %17 = call noundef i64 @_ZNKSt6vectorIN2cv6Point_IfEESaIS2_EE4sizeEv(ptr noundef nonnull align 8 dereferenceable(24) %16) #3
  %18 = icmp ult i64 %15, %17
  br i1 %18, label %19, label %71

19:                                               ; preds = %13
  %20 = getelementptr inbounds %"class.cv::Point_", ptr %7, i32 0, i32 0
  store float 0.000000e+00, ptr %20, align 4
  %21 = getelementptr inbounds %"class.cv::Point_", ptr %7, i32 0, i32 1
  store float 0.000000e+00, ptr %21, align 4
  store i32 0, ptr %9, align 4
  br label %22

22:                                               ; preds = %50, %19
  %23 = load i32, ptr %9, align 4
  %24 = zext i32 %23 to i64
  %25 = call noundef i64 @_ZNKSt6vectorIS_IN2cv6Point_IfEESaIS2_EESaIS4_EE4sizeEv(ptr noundef nonnull align 8 dereferenceable(24) %1) #3
  %26 = icmp ult i64 %24, %25
  br i1 %26, label %27, label %53

27:                                               ; preds = %22
  %28 = load i32, ptr %9, align 4
  %29 = zext i32 %28 to i64
  %30 = call noundef nonnull align 8 dereferenceable(24) ptr @_ZNSt6vectorIS_IN2cv6Point_IfEESaIS2_EESaIS4_EEixEm(ptr noundef nonnull align 8 dereferenceable(24) %1, i64 noundef %29) #3
  %31 = load i32, ptr %8, align 4
  %32 = zext i32 %31 to i64
  %33 = call noundef nonnull align 4 dereferenceable(8) ptr @_ZNSt6vectorIN2cv6Point_IfEESaIS2_EEixEm(ptr noundef nonnull align 8 dereferenceable(24) %30, i64 noundef %32) #3
  %34 = getelementptr inbounds %"class.cv::Point_", ptr %33, i32 0, i32 0
  %35 = load float, ptr %34, align 4
  %36 = getelementptr inbounds %"class.cv::Point_", ptr %7, i32 0, i32 0
  %37 = load float, ptr %36, align 4
  %38 = fadd float %37, %35
  store float %38, ptr %36, align 4
  %39 = load i32, ptr %9, align 4
  %40 = zext i32 %39 to i64
  %41 = call noundef nonnull align 8 dereferenceable(24) ptr @_ZNSt6vectorIS_IN2cv6Point_IfEESaIS2_EESaIS4_EEixEm(ptr noundef nonnull align 8 dereferenceable(24) %1, i64 noundef %40) #3
  %42 = load i32, ptr %8, align 4
  %43 = zext i32 %42 to i64
  %44 = call noundef nonnull align 4 dereferenceable(8) ptr @_ZNSt6vectorIN2cv6Point_IfEESaIS2_EEixEm(ptr noundef nonnull align 8 dereferenceable(24) %41, i64 noundef %43) #3
  %45 = getelementptr inbounds %"class.cv::Point_", ptr %44, i32 0, i32 1
  %46 = load float, ptr %45, align 4
  %47 = getelementptr inbounds %"class.cv::Point_", ptr %7, i32 0, i32 1
  %48 = load float, ptr %47, align 4
  %49 = fadd float %48, %46
  store float %49, ptr %47, align 4
  br label %50

50:                                               ; preds = %27
  %51 = load i32, ptr %9, align 4
  %52 = add i32 %51, 1
  store i32 %52, ptr %9, align 4
  br label %22, !llvm.loop !44

53:                                               ; preds = %22
  %54 = call noundef i64 @_ZNKSt6vectorIS_IN2cv6Point_IfEESaIS2_EESaIS4_EE4sizeEv(ptr noundef nonnull align 8 dereferenceable(24) %1) #3
  %55 = uitofp i64 %54 to float
  %56 = getelementptr inbounds %"class.cv::Point_", ptr %7, i32 0, i32 0
  %57 = load float, ptr %56, align 4
  %58 = fdiv float %57, %55
  store float %58, ptr %56, align 4
  %59 = call noundef i64 @_ZNKSt6vectorIS_IN2cv6Point_IfEESaIS2_EESaIS4_EE4sizeEv(ptr noundef nonnull align 8 dereferenceable(24) %1) #3
  %60 = uitofp i64 %59 to float
  %61 = getelementptr inbounds %"class.cv::Point_", ptr %7, i32 0, i32 1
  %62 = load float, ptr %61, align 4
  %63 = fdiv float %62, %60
  store float %63, ptr %61, align 4
  %64 = load ptr, ptr %6, align 8
  %65 = load i32, ptr %8, align 4
  %66 = zext i32 %65 to i64
  %67 = call noundef nonnull align 4 dereferenceable(8) ptr @_ZNSt6vectorIN2cv6Point_IfEESaIS2_EEixEm(ptr noundef nonnull align 8 dereferenceable(24) %64, i64 noundef %66) #3
  call void @llvm.memcpy.p0.p0.i64(ptr align 4 %67, ptr align 4 %7, i64 8, i1 false)
  br label %68

68:                                               ; preds = %53
  %69 = load i32, ptr %8, align 4
  %70 = add i32 %69, 1
  store i32 %70, ptr %8, align 4
  br label %13, !llvm.loop !45

71:                                               ; preds = %13
  ret void
}