; Function Attrs: mustprogress uwtable
define hidden void @_ZN2cv4face15FacemarkAAMImpl13calcMeanShapeESt6vectorIS2_INS_6Point_IfEESaIS4_EESaIS6_EERS6_(ptr nocapture noundef nonnull readnone align 8 dereferenceable(449) %0, ptr nocapture noundef readonly %1, ptr noundef nonnull align 8 dereferenceable(24) %2) local_unnamed_addr #3 align 2 {
  %4 = load ptr, ptr %1, align 8
  %5 = getelementptr inbounds i8, ptr %4, i64 8
  %6 = load ptr, ptr %5, align 8
  %7 = load ptr, ptr %4, align 8
  %8 = ptrtoint ptr %6 to i64
  %9 = ptrtoint ptr %7 to i64
  %10 = sub i64 %8, %9
  %11 = ashr exact i64 %10, 3
  tail call void @_ZNSt6vectorIN2cv6Point_IfEESaIS2_EE6resizeEm(ptr noundef nonnull align 8 dereferenceable(24) %2, i64 noundef %11)
  %12 = load ptr, ptr %1, align 8
  %13 = getelementptr inbounds i8, ptr %12, i64 8
  %14 = load ptr, ptr %13, align 8
  %15 = load ptr, ptr %12, align 8
  %.not = icmp eq ptr %14, %15
  br i1 %.not, label %._crit_edge22, label %.preheader.lr.ph

.preheader.lr.ph:                                 ; preds = %3
  %16 = getelementptr inbounds i8, ptr %1, i64 8
  br label %.preheader

.preheader:                                       ; preds = %.preheader.lr.ph, %._crit_edge
  %17 = phi ptr [ %12, %.preheader.lr.ph ], [ %43, %._crit_edge ]
  %18 = phi i64 [ 0, %.preheader.lr.ph ], [ %42, %._crit_edge ]
  %.01021 = phi i32 [ 0, %.preheader.lr.ph ], [ %41, %._crit_edge ]
  %19 = load ptr, ptr %16, align 8
  %20 = ptrtoint ptr %19 to i64
  %21 = ptrtoint ptr %17 to i64
  %22 = sub i64 %20, %21
  %23 = sdiv exact i64 %22, 24
  %.not23 = icmp eq ptr %19, %17
  br i1 %.not23, label %._crit_edge, label %.lr.ph

.lr.ph:                                           ; preds = %.preheader, %.lr.ph
  %24 = phi i64 [ %32, %.lr.ph ], [ 0, %.preheader ]
  %.018 = phi i32 [ %31, %.lr.ph ], [ 0, %.preheader ]
  %25 = phi <2 x float> [ %30, %.lr.ph ], [ zeroinitializer, %.preheader ]
  %26 = getelementptr inbounds %"class.std::vector.31", ptr %17, i64 %24
  %27 = load ptr, ptr %26, align 8
  %28 = getelementptr inbounds %"class.cv::Point_", ptr %27, i64 %18
  %29 = load <2 x float>, ptr %28, align 4
  %30 = fadd <2 x float> %25, %29
  %31 = add i32 %.018, 1
  %32 = zext i32 %31 to i64
  %33 = icmp ugt i64 %23, %32
  br i1 %33, label %.lr.ph, label %._crit_edge, !llvm.loop !100

._crit_edge:                                      ; preds = %.lr.ph, %.preheader
  %34 = phi <2 x float> [ zeroinitializer, %.preheader ], [ %30, %.lr.ph ]
  %35 = uitofp nneg i64 %23 to float
  %36 = load ptr, ptr %2, align 8
  %37 = getelementptr inbounds %"class.cv::Point_", ptr %36, i64 %18
  %38 = insertelement <2 x float> poison, float %35, i64 0
  %39 = shufflevector <2 x float> %38, <2 x float> poison, <2 x i32> zeroinitializer
  %40 = fdiv <2 x float> %34, %39
  store <2 x float> %40, ptr %37, align 4
  %41 = add i32 %.01021, 1
  %42 = zext i32 %41 to i64
  %43 = load ptr, ptr %1, align 8
  %44 = getelementptr inbounds i8, ptr %43, i64 8
  %45 = load ptr, ptr %44, align 8
  %46 = load ptr, ptr %43, align 8
  %47 = ptrtoint ptr %45 to i64
  %48 = ptrtoint ptr %46 to i64
  %49 = sub i64 %47, %48
  %50 = ashr exact i64 %49, 3
  %51 = icmp ugt i64 %50, %42
  br i1 %51, label %.preheader, label %._crit_edge22, !llvm.loop !101

._crit_edge22:                                    ; preds = %._crit_edge, %3
  ret void
}